target datalayout = "e-m:e-p270:32:32-p271:32:32-p272:64:64-i64:64-i128:128-f80:128-n8:16:32:64-S128"
target triple = "x86_64-pc-linux-gnu"

; Function Attrs: mustprogress nounwind uwtable
define linkonce_odr dso_local noundef double @_ZNSt14numeric_limitsIdE8infinityEv() #0 comdat align 2 {
  ret double 0x7FF0000000000000
}

; Function Attrs: mustprogress uwtable
define dso_local noundef double @_ZN4absl15random_internal14BetaIncompleteEddd(double noundef %0, double noundef %1, double noundef %2) #5 {
  %4 = alloca double, align 8
  %5 = alloca double, align 8
  %6 = alloca double, align 8
  %7 = alloca double, align 8
  %8 = alloca double, align 8
  store double %0, ptr %5, align 8, !tbaa !11
  store double %1, ptr %6, align 8, !tbaa !11
  store double %2, ptr %7, align 8, !tbaa !11
  %9 = load double, ptr %6, align 8, !tbaa !11
  %10 = fcmp olt double %9, 0.000000e+00
  br i1 %10, label %20, label %11

11:                                               ; preds = %3
  %12 = load double, ptr %7, align 8, !tbaa !11
  %13 = fcmp olt double %12, 0.000000e+00
  br i1 %13, label %20, label %14

14:                                               ; preds = %11
  %15 = load double, ptr %5, align 8, !tbaa !11
  %16 = fcmp olt double %15, 0.000000e+00
  br i1 %16, label %20, label %17

17:                                               ; preds = %14
  %18 = load double, ptr %5, align 8, !tbaa !11
  %19 = fcmp ogt double %18, 1.000000e+00
  br i1 %19, label %20, label %22

20:                                               ; preds = %17, %14, %11, %3
  %21 = call noundef double @_ZNSt14numeric_limitsIdE8infinityEv() #12
  store double %21, ptr %4, align 8
  br label %46

22:                                               ; preds = %17
  %23 = load double, ptr %5, align 8, !tbaa !11
  %24 = fcmp oeq double %23, 0.000000e+00
  br i1 %24, label %28, label %25

25:                                               ; preds = %22
  %26 = load double, ptr %5, align 8, !tbaa !11
  %27 = fcmp oeq double %26, 1.000000e+00
  br i1 %27, label %28, label %30

28:                                               ; preds = %25, %22
  %29 = load double, ptr %5, align 8, !tbaa !11
  store double %29, ptr %4, align 8
  br label %46

30:                                               ; preds = %25
  call void @llvm.lifetime.start.p0(i64 8, ptr %8) #12
  %31 = load double, ptr %6, align 8, !tbaa !11
  %32 = call double @lgamma(double noundef %31) #12
  %33 = load double, ptr %7, align 8, !tbaa !11
  %34 = call double @lgamma(double noundef %33) #12
  %35 = fadd double %32, %34
  %36 = load double, ptr %6, align 8, !tbaa !11
  %37 = load double, ptr %7, align 8, !tbaa !11
  %38 = fadd double %36, %37
  %39 = call double @lgamma(double noundef %38) #12
  %40 = fsub double %35, %39
  store double %40, ptr %8, align 8, !tbaa !11
  %41 = load double, ptr %5, align 8, !tbaa !11
  %42 = load double, ptr %6, align 8, !tbaa !11
  %43 = load double, ptr %7, align 8, !tbaa !11
  %44 = load double, ptr %8, align 8, !tbaa !11
  %45 = call noundef double @_ZN4absl15random_internal12_GLOBAL__N_118BetaIncompleteImplEdddd(double noundef %41, double noundef %42, double noundef %43, double noundef %44)
  store double %45, ptr %4, align 8
  call void @llvm.lifetime.end.p0(i64 8, ptr %8) #12
  br label %46

46:                                               ; preds = %30, %28, %20
  %47 = load double, ptr %4, align 8
  ret double %47
}